target datalayout = "e-m:e-p270:32:32-p271:32:32-p272:64:64-i64:64-i128:128-f80:128-n8:16:32:64-S128"
target triple = "x86_64-pc-linux-gnu"

; Function Attrs: nounwind uwtable
define void @x2rgb10to64_nobswap(ptr noundef %0, ptr noundef %1, i32 noundef %2) #0 {
  %4 = alloca ptr, align 8
  %5 = alloca ptr, align 8
  %6 = alloca i32, align 4
  %7 = alloca ptr, align 8
  %8 = alloca ptr, align 8
  %9 = alloca i32, align 4
  %10 = alloca i32, align 4
  %11 = alloca i32, align 4
  %12 = alloca i32, align 4
  store ptr %0, ptr %4, align 8, !tbaa !4
  store ptr %1, ptr %5, align 8, !tbaa !4
  store i32 %2, ptr %6, align 4, !tbaa !9
  call void @llvm.lifetime.start.p0(i64 8, ptr %7) #5
  %13 = load ptr, ptr %5, align 8, !tbaa !4
  store ptr %13, ptr %7, align 8, !tbaa !20
  call void @llvm.lifetime.start.p0(i64 8, ptr %8) #5
  %14 = load ptr, ptr %4, align 8, !tbaa !4
  store ptr %14, ptr %8, align 8, !tbaa !11
  call void @llvm.lifetime.start.p0(i64 4, ptr %9) #5
  call void @llvm.lifetime.start.p0(i64 4, ptr %10) #5
  %15 = load i32, ptr %6, align 4, !tbaa !9
  %16 = ashr i32 %15, 2
  store i32 %16, ptr %10, align 4, !tbaa !9
  call void @llvm.lifetime.start.p0(i64 4, ptr %11) #5
  store i32 0, ptr %9, align 4, !tbaa !9
  br label %17

17:                                               ; preds = %77, %3
  %18 = load i32, ptr %9, align 4, !tbaa !9
  %19 = load i32, ptr %10, align 4, !tbaa !9
  %20 = icmp slt i32 %18, %19
  br i1 %20, label %21, label %80

21:                                               ; preds = %17
  call void @llvm.lifetime.start.p0(i64 4, ptr %12) #5
  %22 = load ptr, ptr %8, align 8, !tbaa !11
  %23 = load i32, ptr %9, align 4, !tbaa !9
  %24 = sext i32 %23 to i64
  %25 = getelementptr inbounds i32, ptr %22, i64 %24
  %26 = load i32, ptr %25, align 1, !tbaa !13
  store i32 %26, ptr %12, align 4, !tbaa !9
  %27 = load i32, ptr %12, align 4, !tbaa !9
  %28 = lshr i32 %27, 20
  %29 = and i32 %28, 1023
  store i32 %29, ptr %11, align 4, !tbaa !9
  %30 = load i32, ptr %11, align 4, !tbaa !9
  %31 = shl i32 %30, 6
  %32 = load i32, ptr %11, align 4, !tbaa !9
  %33 = lshr i32 %32, 4
  %34 = or i32 %31, %33
  %35 = trunc i32 %34 to i16
  %36 = load ptr, ptr %7, align 8, !tbaa !20
  %37 = load i32, ptr %9, align 4, !tbaa !9
  %38 = mul nsw i32 4, %37
  %39 = add nsw i32 %38, 0
  %40 = sext i32 %39 to i64
  %41 = getelementptr inbounds i16, ptr %36, i64 %40
  store i16 %35, ptr %41, align 2, !tbaa !22
  %42 = load i32, ptr %12, align 4, !tbaa !9
  %43 = lshr i32 %42, 10
  %44 = and i32 %43, 1023
  store i32 %44, ptr %11, align 4, !tbaa !9
  %45 = load i32, ptr %11, align 4, !tbaa !9
  %46 = shl i32 %45, 6
  %47 = load i32, ptr %11, align 4, !tbaa !9
  %48 = lshr i32 %47, 4
  %49 = or i32 %46, %48
  %50 = trunc i32 %49 to i16
  %51 = load ptr, ptr %7, align 8, !tbaa !20
  %52 = load i32, ptr %9, align 4, !tbaa !9
  %53 = mul nsw i32 4, %52
  %54 = add nsw i32 %53, 1
  %55 = sext i32 %54 to i64
  %56 = getelementptr inbounds i16, ptr %51, i64 %55
  store i16 %50, ptr %56, align 2, !tbaa !22
  %57 = load i32, ptr %12, align 4, !tbaa !9
  %58 = and i32 %57, 1023
  store i32 %58, ptr %11, align 4, !tbaa !9
  %59 = load i32, ptr %11, align 4, !tbaa !9
  %60 = shl i32 %59, 6
  %61 = load i32, ptr %11, align 4, !tbaa !9
  %62 = lshr i32 %61, 4
  %63 = or i32 %60, %62
  %64 = trunc i32 %63 to i16
  %65 = load ptr, ptr %7, align 8, !tbaa !20
  %66 = load i32, ptr %9, align 4, !tbaa !9
  %67 = mul nsw i32 4, %66
  %68 = add nsw i32 %67, 2
  %69 = sext i32 %68 to i64
  %70 = getelementptr inbounds i16, ptr %65, i64 %69
  store i16 %64, ptr %70, align 2, !tbaa !22
  %71 = load ptr, ptr %7, align 8, !tbaa !20
  %72 = load i32, ptr %9, align 4, !tbaa !9
  %73 = mul nsw i32 4, %72
  %74 = add nsw i32 %73, 3
  %75 = sext i32 %74 to i64
  %76 = getelementptr inbounds i16, ptr %71, i64 %75
  store i16 -1, ptr %76, align 2, !tbaa !22
  call void @llvm.lifetime.end.p0(i64 4, ptr %12) #5
  br label %77

77:                                               ; preds = %21
  %78 = load i32, ptr %9, align 4, !tbaa !9
  %79 = add nsw i32 %78, 1
  store i32 %79, ptr %9, align 4, !tbaa !9
  br label %17, !llvm.loop !46

80:                                               ; preds = %17
  call void @llvm.lifetime.end.p0(i64 4, ptr %11) #5
  call void @llvm.lifetime.end.p0(i64 4, ptr %10) #5
  call void @llvm.lifetime.end.p0(i64 4, ptr %9) #5
  call void @llvm.lifetime.end.p0(i64 8, ptr %8) #5
  call void @llvm.lifetime.end.p0(i64 8, ptr %7) #5
  ret void
}